; Function Attrs: nofree nosync nounwind memory(readwrite, inaccessiblemem: none) uwtable
define range(i32 0, 2) i32 @Nwk_ManPushBackwardFast_rec(ptr noundef %0, ptr noundef %1) local_unnamed_addr #0 {
  %.val = load ptr, ptr %0, align 8, !tbaa !20
  %3 = getelementptr i8, ptr %0, i64 40
  %.val23 = load i32, ptr %3, align 8, !tbaa !21
  %4 = getelementptr i8, ptr %.val, i64 104
  %.val.val = load i32, ptr %4, align 8, !tbaa !22
  %.not = icmp eq i32 %.val23, %.val.val
  br i1 %.not, label %.critedge, label %5

5:                                                ; preds = %2
  store i32 %.val.val, ptr %3, align 8, !tbaa !21
  %6 = getelementptr i8, ptr %0, i64 32
  %.val24 = load i32, ptr %6, align 8
  %7 = and i32 %.val24, 32
  %.not19 = icmp eq i32 %7, 0
  br i1 %.not19, label %8, label %.critedge

8:                                                ; preds = %5
  %9 = and i32 %.val24, 16
  %.not20 = icmp eq i32 %9, 0
  br i1 %.not20, label %.preheader, label %.critedge.sink.split

.preheader:                                       ; preds = %8
  %10 = getelementptr inbounds nuw i8, ptr %0, i64 60
  %11 = load i32, ptr %10, align 4, !tbaa !3
  %12 = icmp sgt i32 %11, 0
  br i1 %12, label %.lr.ph, label %.critedge

.lr.ph:                                           ; preds = %.preheader
  %13 = getelementptr inbounds nuw i8, ptr %0, i64 72
  br label %18

14:                                               ; preds = %22
  %indvars.iv.next = add nuw nsw i64 %indvars.iv, 1
  %15 = load i32, ptr %10, align 4, !tbaa !3
  %16 = sext i32 %15 to i64
  %17 = icmp slt i64 %indvars.iv.next, %16
  br i1 %17, label %18, label %.critedge, !llvm.loop !32

18:                                               ; preds = %.lr.ph, %14
  %indvars.iv = phi i64 [ 0, %.lr.ph ], [ %indvars.iv.next, %14 ]
  %19 = load ptr, ptr %13, align 8, !tbaa !13
  %20 = getelementptr inbounds nuw ptr, ptr %19, i64 %indvars.iv
  %21 = load ptr, ptr %20, align 8, !tbaa !14
  %.not21 = icmp eq ptr %21, null
  br i1 %.not21, label %.critedge, label %22

22:                                               ; preds = %18
  %23 = tail call i32 @Nwk_ManPushBackwardFast_rec(ptr noundef nonnull %21, ptr noundef nonnull %0)
  %.not22 = icmp eq i32 %23, 0
  br i1 %.not22, label %14, label %24

24:                                               ; preds = %22
  %25 = load i32, ptr %6, align 8
  br label %.critedge.sink.split

.critedge.sink.split:                             ; preds = %8, %24
  %.sink29 = phi i32 [ %25, %24 ], [ %.val24, %8 ]
  %26 = or i32 %.sink29, 32
  store i32 %26, ptr %6, align 8
  %27 = getelementptr inbounds nuw i8, ptr %0, i64 16
  store ptr %1, ptr %27, align 8, !tbaa !31
  br label %.critedge

.critedge:                                        ; preds = %14, %18, %.critedge.sink.split, %.preheader, %5, %2
  %.017 = phi i32 [ 0, %2 ], [ 0, %5 ], [ 0, %.preheader ], [ 1, %.critedge.sink.split ], [ 0, %18 ], [ 0, %14 ]
  ret i32 %.017
}